; Function Attrs: mustprogress nofree norecurse nounwind willreturn memory(readwrite, inaccessiblemem: none) uwtable
define void @ff_amf_write_string(ptr noundef captures(none) %0, ptr noundef readonly captures(none) %1) local_unnamed_addr #1 {
  %3 = load ptr, ptr %0, align 8, !tbaa !4
  store i8 2, ptr %3, align 1, !tbaa !9
  %4 = load ptr, ptr %0, align 8, !tbaa !4
  %5 = getelementptr inbounds nuw i8, ptr %4, i64 1
  store ptr %5, ptr %0, align 8, !tbaa !4
  %6 = tail call i64 @strlen(ptr noundef nonnull dereferenceable(1) %1) #15
  %7 = trunc i64 %6 to i16
  %8 = tail call i16 @llvm.bswap.i16(i16 %7)
  store i16 %8, ptr %5, align 1, !tbaa !9
  %9 = load ptr, ptr %0, align 8, !tbaa !4
  %10 = getelementptr inbounds nuw i8, ptr %9, i64 2
  store ptr %10, ptr %0, align 8, !tbaa !4
  %11 = tail call i64 @strlen(ptr noundef nonnull dereferenceable(1) %1) #15
  %12 = and i64 %11, 4294967295
  tail call void @llvm.memcpy.p0.p0.i64(ptr nonnull align 1 %10, ptr nonnull align 1 %1, i64 %12, i1 false)
  %13 = load ptr, ptr %0, align 8, !tbaa !4
  %14 = getelementptr inbounds nuw i8, ptr %13, i64 %12
  store ptr %14, ptr %0, align 8, !tbaa !4
  ret void
}